; Function Attrs: mustprogress nofree norecurse nosync nounwind willreturn memory(read, argmem: none, inaccessiblemem: none) uwtable
define zeroext i1 @b2World_IsSleepingEnabled(i32 %0) local_unnamed_addr #5 {
  %2 = and i32 %0, 65535
  %3 = zext nneg i32 %2 to i64
  %4 = getelementptr %struct.b2World, ptr @b2_worlds, i64 %3
  %5 = getelementptr i8, ptr %4, i64 -10
  %6 = load i8, ptr %5, align 2, !tbaa !134, !range !77, !noundef !78
  %7 = trunc nuw i8 %6 to i1
  ret i1 %7
}